; Function Attrs: nounwind uwtable
define internal void @EvaluateCurves(ptr nocapture noundef readonly %0, ptr nocapture noundef writeonly %1, ptr nocapture noundef readonly %2) #0 {
  %4 = getelementptr inbounds i8, ptr %2, i64 48
  %5 = load ptr, ptr %4, align 8
  %6 = icmp eq ptr %5, null
  br i1 %6, label %.loopexit, label %7

7:                                                ; preds = %3
  %8 = getelementptr inbounds i8, ptr %5, i64 8
  %9 = load ptr, ptr %8, align 8
  %10 = icmp eq ptr %9, null
  br i1 %10, label %.loopexit, label %.preheader

.preheader:                                       ; preds = %7
  %11 = load i32, ptr %5, align 8
  %.not = icmp eq i32 %11, 0
  br i1 %.not, label %.loopexit, label %.lr.ph

.lr.ph:                                           ; preds = %.preheader, %.lr.ph
  %indvars.iv = phi i64 [ %indvars.iv.next, %.lr.ph ], [ 0, %.preheader ]
  %12 = load ptr, ptr %8, align 8
  %13 = getelementptr inbounds ptr, ptr %12, i64 %indvars.iv
  %14 = load ptr, ptr %13, align 8
  %15 = getelementptr inbounds float, ptr %0, i64 %indvars.iv
  %16 = load float, ptr %15, align 4
  %17 = tail call float @cmsEvalToneCurveFloat(ptr noundef %14, float noundef %16) #18
  %18 = getelementptr inbounds float, ptr %1, i64 %indvars.iv
  store float %17, ptr %18, align 4
  %indvars.iv.next = add nuw nsw i64 %indvars.iv, 1
  %19 = load i32, ptr %5, align 8
  %20 = zext i32 %19 to i64
  %21 = icmp ult i64 %indvars.iv.next, %20
  br i1 %21, label %.lr.ph, label %.loopexit, !llvm.loop !11

.loopexit:                                        ; preds = %.lr.ph, %.preheader, %7, %3
  ret void
}